; Function Attrs: nounwind uwtable
define ptr @l___private_Lean_Widget_InteractiveDiagnostic_0__Lean_Widget_toJsonRpcEncodablePacket____x40_Lean_Widget_InteractiveDiagnostic___hyg_210_(ptr noundef %0) local_unnamed_addr #0 {
  %2 = ptrtoint ptr %0 to i64
  %3 = and i64 %2, 1
  %.not.i = icmp eq i64 %3, 0
  br i1 %.not.i, label %7, label %4

4:                                                ; preds = %1
  %5 = lshr i64 %2, 1
  %6 = trunc i64 %5 to i32
  br label %lean_obj_tag.exit

7:                                                ; preds = %1
  %8 = getelementptr i8, ptr %0, i64 4
  %.val.i = load i32, ptr %8, align 4
  %9 = lshr i32 %.val.i, 24
  br label %lean_obj_tag.exit

lean_obj_tag.exit:                                ; preds = %4, %7
  %.0.i = phi i32 [ %6, %4 ], [ %9, %7 ]
  %10 = icmp eq i32 %.0.i, 0
  %11 = getelementptr inbounds nuw i8, ptr %0, i64 8
  %12 = load ptr, ptr %11, align 8, !tbaa !9
  %13 = ptrtoint ptr %12 to i64
  %14 = and i64 %13, 1
  %.not35 = icmp eq i64 %14, 0
  br i1 %10, label %15, label %32

15:                                               ; preds = %lean_obj_tag.exit
  %16 = load ptr, ptr @l___private_Lean_Widget_InteractiveDiagnostic_0__Lean_Widget_fromJsonRpcEncodablePacket____x40_Lean_Widget_InteractiveDiagnostic___hyg_92____lambda__2___closed__1, align 8, !tbaa !9
  br i1 %.not35, label %17, label %lean_inc.exit26

17:                                               ; preds = %15
  %.val.i27 = load i32, ptr %12, align 4, !tbaa !4
  %18 = icmp sgt i32 %.val.i27, 0
  br i1 %18, label %19, label %21, !prof !15

19:                                               ; preds = %17
  %20 = add nuw i32 %.val.i27, 1
  store i32 %20, ptr %12, align 4, !tbaa !4
  br label %lean_inc.exit26

21:                                               ; preds = %17
  %.not.i28 = icmp eq i32 %.val.i27, 0
  br i1 %.not.i28, label %lean_inc.exit26, label %22

22:                                               ; preds = %21
  tail call void @lean_inc_ref_cold(ptr noundef nonnull %12) #7
  br label %lean_inc.exit26

lean_inc.exit26:                                  ; preds = %22, %21, %19, %15
  tail call void @lean_inc_heartbeat() #7
  %23 = tail call noalias ptr @mi_malloc_small(i64 noundef 24) #7
  %24 = icmp eq ptr %23, null
  br i1 %24, label %25, label %lean_alloc_ctor.exit

25:                                               ; preds = %lean_inc.exit26
  tail call void @lean_internal_panic_out_of_memory() #8
  unreachable

lean_alloc_ctor.exit:                             ; preds = %lean_inc.exit26
  %26 = getelementptr inbounds nuw i8, ptr %23, i64 4
  store i32 1, ptr %23, align 4, !tbaa !4
  store i32 131096, ptr %26, align 4
  %27 = getelementptr inbounds nuw i8, ptr %23, i64 8
  store ptr %16, ptr %27, align 8, !tbaa !9
  %28 = getelementptr inbounds nuw i8, ptr %23, i64 16
  store ptr %12, ptr %28, align 8, !tbaa !9
  tail call void @lean_inc_heartbeat() #7
  %29 = tail call noalias ptr @mi_malloc_small(i64 noundef 24) #7
  %30 = icmp eq ptr %29, null
  br i1 %30, label %31, label %lean_alloc_ctor.exit29

31:                                               ; preds = %lean_alloc_ctor.exit
  tail call void @lean_internal_panic_out_of_memory() #8
  unreachable

32:                                               ; preds = %lean_obj_tag.exit
  %33 = load ptr, ptr @l___private_Lean_Widget_InteractiveDiagnostic_0__Lean_Widget_fromJsonRpcEncodablePacket____x40_Lean_Widget_InteractiveDiagnostic___hyg_92____closed__1, align 8, !tbaa !9
  br i1 %.not35, label %34, label %lean_inc.exit

34:                                               ; preds = %32
  %.val.i30 = load i32, ptr %12, align 4, !tbaa !4
  %35 = icmp sgt i32 %.val.i30, 0
  br i1 %35, label %36, label %38, !prof !15

36:                                               ; preds = %34
  %37 = add nuw i32 %.val.i30, 1
  store i32 %37, ptr %12, align 4, !tbaa !4
  br label %lean_inc.exit

38:                                               ; preds = %34
  %.not.i31 = icmp eq i32 %.val.i30, 0
  br i1 %.not.i31, label %lean_inc.exit, label %39

39:                                               ; preds = %38
  tail call void @lean_inc_ref_cold(ptr noundef nonnull %12) #7
  br label %lean_inc.exit

lean_inc.exit:                                    ; preds = %39, %38, %36, %32
  tail call void @lean_inc_heartbeat() #7
  %40 = tail call noalias ptr @mi_malloc_small(i64 noundef 24) #7
  %41 = icmp eq ptr %40, null
  br i1 %41, label %42, label %lean_alloc_ctor.exit33

42:                                               ; preds = %lean_inc.exit
  tail call void @lean_internal_panic_out_of_memory() #8
  unreachable

lean_alloc_ctor.exit33:                           ; preds = %lean_inc.exit
  %43 = getelementptr inbounds nuw i8, ptr %40, i64 4
  store i32 1, ptr %40, align 4, !tbaa !4
  store i32 131096, ptr %43, align 4
  %44 = getelementptr inbounds nuw i8, ptr %40, i64 8
  store ptr %33, ptr %44, align 8, !tbaa !9
  %45 = getelementptr inbounds nuw i8, ptr %40, i64 16
  store ptr %12, ptr %45, align 8, !tbaa !9
  tail call void @lean_inc_heartbeat() #7
  %46 = tail call noalias ptr @mi_malloc_small(i64 noundef 24) #7
  %47 = icmp eq ptr %46, null
  br i1 %47, label %48, label %lean_alloc_ctor.exit29

48:                                               ; preds = %lean_alloc_ctor.exit33
  tail call void @lean_internal_panic_out_of_memory() #8
  unreachable

lean_alloc_ctor.exit29:                           ; preds = %lean_alloc_ctor.exit33, %lean_alloc_ctor.exit
  %.sink43 = phi ptr [ %29, %lean_alloc_ctor.exit ], [ %46, %lean_alloc_ctor.exit33 ]
  %.sink38 = phi ptr [ %23, %lean_alloc_ctor.exit ], [ %40, %lean_alloc_ctor.exit33 ]
  %49 = getelementptr inbounds nuw i8, ptr %.sink43, i64 4
  store i32 1, ptr %.sink43, align 4, !tbaa !4
  store i32 16908312, ptr %49, align 4
  %50 = getelementptr inbounds nuw i8, ptr %.sink43, i64 8
  store ptr %.sink38, ptr %50, align 8, !tbaa !9
  %51 = getelementptr inbounds nuw i8, ptr %.sink43, i64 16
  store ptr inttoptr (i64 1 to ptr), ptr %51, align 8, !tbaa !9
  %52 = tail call ptr @l_Lean_Json_mkObj(ptr noundef nonnull %.sink43) #7
  ret ptr %52
}